; Function Attrs: nounwind sspstrong uwtable
define internal fastcc noalias nonnull ptr @pm_until_node_create(ptr noundef %0, ptr %.8.val, ptr %.16.val, ptr noundef nonnull readonly captures(none) %1, ptr noundef readonly captures(none) %2, ptr noundef %3, ptr noundef %4) unnamed_addr #1 {
  %6 = tail call noalias dereferenceable_or_null(88) ptr @calloc(i64 noundef 1, i64 noundef 88) #34
  %7 = icmp eq ptr %6, null
  br i1 %7, label %8, label %pm_node_alloc.exit

8:                                                ; preds = %5
  %9 = load ptr, ptr @stderr, align 8, !tbaa !105
  %10 = tail call i32 (ptr, i32, ptr, ...) @__fprintf_chk(ptr noundef %9, i32 noundef 1, ptr noundef nonnull @.str.94, i32 noundef 88) #31
  tail call void @abort() #35
  unreachable

pm_node_alloc.exit:                               ; preds = %5
  tail call fastcc void @pm_conditional_predicate(ptr noundef %0, ptr noundef %3, i32 noundef 0)
  %11 = load i32, ptr %0, align 8, !tbaa !107
  %12 = add i32 %11, 1
  store i32 %12, ptr %0, align 8, !tbaa !107
  %13 = getelementptr inbounds nuw i8, ptr %2, i64 16
  %14 = load ptr, ptr %13, align 8, !tbaa !126
  %15 = load i32, ptr %1, align 8, !tbaa !124
  %16 = icmp eq i32 %15, 3
  br i1 %16, label %22, label %17

17:                                               ; preds = %pm_node_alloc.exit
  %18 = getelementptr inbounds nuw i8, ptr %1, i64 8
  %19 = load ptr, ptr %18, align 8, !tbaa !125
  %20 = getelementptr inbounds nuw i8, ptr %1, i64 16
  %21 = load ptr, ptr %20, align 8, !tbaa !126
  br label %22

22:                                               ; preds = %pm_node_alloc.exit, %17
  %.sroa.8.0 = phi ptr [ %19, %17 ], [ null, %pm_node_alloc.exit ]
  %.sroa.10.0 = phi ptr [ %21, %17 ], [ null, %pm_node_alloc.exit ]
  %23 = load i32, ptr %2, align 8, !tbaa !124
  %24 = icmp eq i32 %23, 3
  br i1 %24, label %28, label %25

25:                                               ; preds = %22
  %26 = getelementptr inbounds nuw i8, ptr %2, i64 8
  %27 = load ptr, ptr %26, align 8, !tbaa !125
  br label %28

28:                                               ; preds = %22, %25
  %.sroa.12.0 = phi ptr [ %27, %25 ], [ null, %22 ]
  %.sroa.14.0 = phi ptr [ %14, %25 ], [ null, %22 ]
  store i16 147, ptr %6, align 8, !tbaa !108
  %.sroa.3.0..sroa_idx = getelementptr inbounds nuw i8, ptr %6, i64 4
  store i32 %12, ptr %.sroa.3.0..sroa_idx, align 4, !tbaa !7
  %.sroa.4.0..sroa_idx = getelementptr inbounds nuw i8, ptr %6, i64 8
  store ptr %.8.val, ptr %.sroa.4.0..sroa_idx, align 8, !tbaa !14
  %.sroa.5.0..sroa_idx = getelementptr inbounds nuw i8, ptr %6, i64 16
  store ptr %14, ptr %.sroa.5.0..sroa_idx, align 8, !tbaa !14
  %.sroa.6.0..sroa_idx = getelementptr inbounds nuw i8, ptr %6, i64 24
  store ptr %.8.val, ptr %.sroa.6.0..sroa_idx, align 8, !tbaa !14
  %.sroa.7.0..sroa_idx = getelementptr inbounds nuw i8, ptr %6, i64 32
  store ptr %.16.val, ptr %.sroa.7.0..sroa_idx, align 8, !tbaa !14
  %.sroa.8.0..sroa_idx = getelementptr inbounds nuw i8, ptr %6, i64 40
  store ptr %.sroa.8.0, ptr %.sroa.8.0..sroa_idx, align 8, !tbaa !14
  %.sroa.10.0..sroa_idx = getelementptr inbounds nuw i8, ptr %6, i64 48
  store ptr %.sroa.10.0, ptr %.sroa.10.0..sroa_idx, align 8, !tbaa !14
  %.sroa.12.0..sroa_idx = getelementptr inbounds nuw i8, ptr %6, i64 56
  store ptr %.sroa.12.0, ptr %.sroa.12.0..sroa_idx, align 8, !tbaa !14
  %.sroa.14.0..sroa_idx = getelementptr inbounds nuw i8, ptr %6, i64 64
  store ptr %.sroa.14.0, ptr %.sroa.14.0..sroa_idx, align 8, !tbaa !14
  %.sroa.16.0..sroa_idx = getelementptr inbounds nuw i8, ptr %6, i64 72
  store ptr %3, ptr %.sroa.16.0..sroa_idx, align 8, !tbaa !103
  %.sroa.17.0..sroa_idx = getelementptr inbounds nuw i8, ptr %6, i64 80
  store ptr %4, ptr %.sroa.17.0..sroa_idx, align 8, !tbaa !134
  ret ptr %6
}